target datalayout = "e-m:e-p270:32:32-p271:32:32-p272:64:64-i64:64-i128:128-f80:128-n8:16:32:64-S128"
target triple = "x86_64-pc-linux-gnu"

%struct.Wln_Ntk_t_ = type { ptr, ptr, i32, %struct.Vec_Int_t_, %struct.Vec_Int_t_, %struct.Vec_Int_t_, %struct.Vec_Int_t_, ptr, %struct.Vec_Int_t_, ptr, %struct.Vec_Int_t_, %struct.Vec_Int_t_, ptr, %struct.Vec_Str_t_, i32, %struct.Vec_Int_t_, %struct.Vec_Int_t_, %struct.Vec_Int_t_, %struct.Vec_Int_t_, %struct.Vec_Int_t_, %struct.Vec_Int_t_, %struct.Vec_Int_t_, %struct.Vec_Int_t_, ptr, [99 x i32], [99 x i32] }
%struct.Vec_Str_t_ = type { i32, i32, ptr }
%struct.Vec_Int_t_ = type { i32, i32, ptr }
%struct.Wln_Vec_t_ = type { i32, i32, %union.anon }
%union.anon = type { [1 x ptr] }

; Function Attrs: nounwind uwtable
define internal i32 @Wln_ObjFaninNum(ptr noundef %0, i32 noundef %1) #0 {
  %3 = alloca ptr, align 8
  %4 = alloca i32, align 4
  store ptr %0, ptr %3, align 8
  store i32 %1, ptr %4, align 4
  %5 = load ptr, ptr %3, align 8
  %6 = getelementptr inbounds %struct.Wln_Ntk_t_, ptr %5, i32 0, i32 7
  %7 = load ptr, ptr %6, align 8
  %8 = load i32, ptr %4, align 4
  %9 = sext i32 %8 to i64
  %10 = getelementptr inbounds %struct.Wln_Vec_t_, ptr %7, i64 %9
  %11 = getelementptr inbounds %struct.Wln_Vec_t_, ptr %10, i32 0, i32 1
  %12 = load i32, ptr %11, align 4
  ret i32 %12
}

; Function Attrs: nounwind uwtable
define internal ptr @Wln_ObjFanins(ptr noundef %0, i32 noundef %1) #0 {
  %3 = alloca ptr, align 8
  %4 = alloca i32, align 4
  store ptr %0, ptr %3, align 8
  store i32 %1, ptr %4, align 4
  %5 = load ptr, ptr %3, align 8
  %6 = load i32, ptr %4, align 4
  %7 = call i32 @Wln_ObjFaninNum(ptr noundef %5, i32 noundef %6)
  %8 = icmp sgt i32 %7, 2
  br i1 %8, label %9, label %19

9:                                                ; preds = %2
  %10 = load ptr, ptr %3, align 8
  %11 = getelementptr inbounds %struct.Wln_Ntk_t_, ptr %10, i32 0, i32 7
  %12 = load ptr, ptr %11, align 8
  %13 = load i32, ptr %4, align 4
  %14 = sext i32 %13 to i64
  %15 = getelementptr inbounds %struct.Wln_Vec_t_, ptr %12, i64 %14
  %16 = getelementptr inbounds %struct.Wln_Vec_t_, ptr %15, i32 0, i32 2
  %17 = getelementptr inbounds [1 x ptr], ptr %16, i64 0, i64 0
  %18 = load ptr, ptr %17, align 8
  br label %28

19:                                               ; preds = %2
  %20 = load ptr, ptr %3, align 8
  %21 = getelementptr inbounds %struct.Wln_Ntk_t_, ptr %20, i32 0, i32 7
  %22 = load ptr, ptr %21, align 8
  %23 = load i32, ptr %4, align 4
  %24 = sext i32 %23 to i64
  %25 = getelementptr inbounds %struct.Wln_Vec_t_, ptr %22, i64 %24
  %26 = getelementptr inbounds %struct.Wln_Vec_t_, ptr %25, i32 0, i32 2
  %27 = getelementptr inbounds [2 x i32], ptr %26, i64 0, i64 0
  br label %28

28:                                               ; preds = %19, %9
  %29 = phi ptr [ %18, %9 ], [ %27, %19 ]
  ret ptr %29
}

; Function Attrs: nounwind uwtable
define internal void @Wln_ObjSetFanin(ptr noundef %0, i32 noundef %1, i32 noundef %2, i32 noundef %3) #0 {
  %5 = alloca ptr, align 8
  %6 = alloca i32, align 4
  %7 = alloca i32, align 4
  %8 = alloca i32, align 4
  store ptr %0, ptr %5, align 8
  store i32 %1, ptr %6, align 4
  store i32 %2, ptr %7, align 4
  store i32 %3, ptr %8, align 4
  %9 = load i32, ptr %8, align 4
  %10 = load ptr, ptr %5, align 8
  %11 = load i32, ptr %6, align 4
  %12 = call ptr @Wln_ObjFanins(ptr noundef %10, i32 noundef %11)
  %13 = load i32, ptr %7, align 4
  %14 = sext i32 %13 to i64
  %15 = getelementptr inbounds i32, ptr %12, i64 %14
  store i32 %9, ptr %15, align 4
  ret void
}

; Function Attrs: nounwind uwtable
define void @Wln_ObjSetConst(ptr noundef %0, i32 noundef %1, i32 noundef %2) #0 {
  %4 = alloca ptr, align 8
  %5 = alloca i32, align 4
  %6 = alloca i32, align 4
  store ptr %0, ptr %4, align 8
  store i32 %1, ptr %5, align 4
  store i32 %2, ptr %6, align 4
  %7 = load ptr, ptr %4, align 8
  %8 = load i32, ptr %5, align 4
  %9 = load i32, ptr %6, align 4
  call void @Wln_ObjSetFanin(ptr noundef %7, i32 noundef %8, i32 noundef 0, i32 noundef %9)
  ret void
}