; Function Attrs: mustprogress nofree norecurse nosync nounwind willreturn memory(readwrite, inaccessiblemem: none) uwtable
define void @Wln_ObjSetConst(ptr noundef readonly captures(none) %0, i32 noundef %1, i32 noundef %2) local_unnamed_addr #3 {
  %4 = getelementptr i8, ptr %0, i64 88
  %.val = load ptr, ptr %4, align 8
  %5 = sext i32 %1 to i64
  %6 = getelementptr inbounds %struct.Wln_Vec_t_, ptr %.val, i64 %5, i32 1
  %7 = load i32, ptr %6, align 4
  %8 = icmp sgt i32 %7, 2
  %9 = getelementptr inbounds %struct.Wln_Vec_t_, ptr %.val, i64 %5, i32 2
  br i1 %8, label %10, label %Wln_ObjSetFanin.exit

10:                                               ; preds = %3
  %11 = load ptr, ptr %9, align 8
  br label %Wln_ObjSetFanin.exit

Wln_ObjSetFanin.exit:                             ; preds = %3, %10
  %12 = phi ptr [ %11, %10 ], [ %9, %3 ]
  store i32 %2, ptr %12, align 4
  ret void
}